; Function Attrs: mustprogress uwtable
define noundef ptr @_ZNK6icu_7523LowercaseTransliterator5cloneEv(ptr noundef nonnull align 8 dereferenceable(96) %this) unnamed_addr #1 align 2 personality ptr @__gxx_personality_v0 {
entry:
  %call = tail call noundef ptr @_ZN6icu_757UMemorynwEm(i64 noundef 96) #5
  %new.isnull = icmp eq ptr %call, null
  br i1 %new.isnull, label %new.cont, label %new.notnull

new.notnull:                                      ; preds = %entry
  invoke void @_ZN6icu_7523LowercaseTransliteratorC1ERKS0_(ptr noundef nonnull align 8 dereferenceable(96) %call, ptr noundef nonnull align 8 dereferenceable(96) %this)
          to label %new.cont unwind label %lpad

new.cont:                                         ; preds = %new.notnull, %entry
  ret ptr %call

lpad:                                             ; preds = %new.notnull
  %0 = landingpad { ptr, i32 }
          cleanup
  tail call void @_ZN6icu_757UMemorydlEPv(ptr noundef nonnull %call) #5
  resume { ptr, i32 } %0
}